target datalayout = "e-m:e-p270:32:32-p271:32:32-p272:64:64-i64:64-i128:128-f80:128-n8:16:32:64-S128"
target triple = "x86_64-pc-linux-gnu"

%struct.FWCfgState = type { %struct.SysBusDevice, i16, [2 x ptr], ptr, ptr, i16, i32, %struct.Notifier, i32, i8, i64, ptr, %struct.MemoryRegion, i8, i64, i64, i64 }
%struct.SysBusDevice = type { %struct.DeviceState, i32, [32 x %struct.anon], i32, [32 x i32] }
%struct.DeviceState = type { %struct.Object, ptr, ptr, i8, i8, i64, i32, i8, ptr, %struct.NamedGPIOListHead, %struct.NamedClockListHead, %struct.BusStateHead, i32, i32, i32, %struct.ResettableState, ptr, %struct.MemReentrancyGuard }
%struct.Object = type { ptr, ptr, ptr, i32, ptr }
%struct.NamedGPIOListHead = type { ptr }
%struct.NamedClockListHead = type { ptr }
%struct.BusStateHead = type { ptr }
%struct.ResettableState = type { i32, i8, i8 }
%struct.MemReentrancyGuard = type { i8 }
%struct.anon = type { i64, ptr }
%struct.Notifier = type { ptr, %struct.anon.0 }
%struct.anon.0 = type { ptr, ptr }
%struct.MemoryRegion = type { %struct.Object, i8, i8, i8, i8, i8, i8, i8, i8, i8, i8, ptr, ptr, ptr, ptr, ptr, ptr, i32, i128, i64, ptr, i64, i8, i8, i8, i8, ptr, i64, i32, %union.anon, %union.anon.1, %union.anon.2, ptr, i32, ptr, ptr, i8 }
%union.anon = type { %struct.QTailQLink }
%struct.QTailQLink = type { ptr, ptr }
%union.anon.1 = type { %struct.QTailQLink }
%union.anon.2 = type { %struct.QTailQLink }
%struct.FWCfgEntry = type { i32, i8, ptr, ptr, ptr, ptr }

@.str.1 = private unnamed_addr constant [26 x i8] c"../qemu/hw/nvram/fw_cfg.c\00", align 1
@.str.46 = private unnamed_addr constant [46 x i8] c"key < fw_cfg_max_entry(s) && len < UINT32_MAX\00", align 1
@__PRETTY_FUNCTION__.fw_cfg_modify_bytes_read = private unnamed_addr constant [71 x i8] c"void *fw_cfg_modify_bytes_read(FWCfgState *, uint16_t, void *, size_t)\00", align 1

; Function Attrs: inlinehint nounwind sspstrong uwtable
define internal zeroext i16 @fw_cfg_file_slots(ptr noundef %0) #2 {
  %2 = alloca ptr, align 8
  store ptr %0, ptr %2, align 8
  %3 = load ptr, ptr %2, align 8
  %4 = getelementptr inbounds nuw %struct.FWCfgState, ptr %3, i32 0, i32 1
  %5 = load i16, ptr %4, align 8
  ret i16 %5
}

; Function Attrs: inlinehint nounwind sspstrong uwtable
define internal i32 @fw_cfg_max_entry(ptr noundef %0) #2 {
  %2 = alloca ptr, align 8
  store ptr %0, ptr %2, align 8
  %3 = load ptr, ptr %2, align 8
  %4 = call zeroext i16 @fw_cfg_file_slots(ptr noundef %3)
  %5 = zext i16 %4 to i32
  %6 = add i32 32, %5
  ret i32 %6
}

; Function Attrs: nounwind sspstrong uwtable
define internal ptr @fw_cfg_modify_bytes_read(ptr noundef %0, i16 noundef zeroext %1, ptr noundef %2, i64 noundef %3) #0 {
  %5 = alloca ptr, align 8
  %6 = alloca i16, align 2
  %7 = alloca ptr, align 8
  %8 = alloca i64, align 8
  %9 = alloca ptr, align 8
  %10 = alloca i32, align 4
  store ptr %0, ptr %5, align 8
  store i16 %1, ptr %6, align 2
  store ptr %2, ptr %7, align 8
  store i64 %3, ptr %8, align 8
  call void @llvm.lifetime.start.p0(i64 8, ptr %9) #18
  store ptr null, ptr %9, align 8, !annotation !6
  call void @llvm.lifetime.start.p0(i64 4, ptr %10) #18
  %11 = load i16, ptr %6, align 2
  %12 = zext i16 %11 to i32
  %13 = and i32 %12, 32768
  %14 = icmp ne i32 %13, 0
  %15 = xor i1 %14, true
  %16 = xor i1 %15, true
  %17 = zext i1 %16 to i32
  store i32 %17, ptr %10, align 4
  %18 = load i16, ptr %6, align 2
  %19 = zext i16 %18 to i32
  %20 = and i32 %19, -49153
  %21 = trunc i32 %20 to i16
  store i16 %21, ptr %6, align 2
  %22 = load i16, ptr %6, align 2
  %23 = zext i16 %22 to i32
  %24 = load ptr, ptr %5, align 8
  %25 = call i32 @fw_cfg_max_entry(ptr noundef %24)
  %26 = icmp ult i32 %23, %25
  br i1 %26, label %27, label %31

27:                                               ; preds = %4
  %28 = load i64, ptr %8, align 8
  %29 = icmp ult i64 %28, 4294967295
  br i1 %29, label %30, label %31

30:                                               ; preds = %27
  br label %32

31:                                               ; preds = %27, %4
  call void @__assert_fail(ptr noundef @.str.46, ptr noundef @.str.1, i32 noundef 726, ptr noundef @__PRETTY_FUNCTION__.fw_cfg_modify_bytes_read) #19
  unreachable

32:                                               ; preds = %30
  %33 = load ptr, ptr %5, align 8
  %34 = getelementptr inbounds nuw %struct.FWCfgState, ptr %33, i32 0, i32 2
  %35 = load i32, ptr %10, align 4
  %36 = sext i32 %35 to i64
  %37 = getelementptr inbounds [2 x ptr], ptr %34, i64 0, i64 %36
  %38 = load ptr, ptr %37, align 8
  %39 = load i16, ptr %6, align 2
  %40 = zext i16 %39 to i64
  %41 = getelementptr inbounds nuw %struct.FWCfgEntry, ptr %38, i64 %40
  %42 = getelementptr inbounds nuw %struct.FWCfgEntry, ptr %41, i32 0, i32 2
  %43 = load ptr, ptr %42, align 8
  store ptr %43, ptr %9, align 8
  %44 = load ptr, ptr %7, align 8
  %45 = load ptr, ptr %5, align 8
  %46 = getelementptr inbounds nuw %struct.FWCfgState, ptr %45, i32 0, i32 2
  %47 = load i32, ptr %10, align 4
  %48 = sext i32 %47 to i64
  %49 = getelementptr inbounds [2 x ptr], ptr %46, i64 0, i64 %48
  %50 = load ptr, ptr %49, align 8
  %51 = load i16, ptr %6, align 2
  %52 = zext i16 %51 to i64
  %53 = getelementptr inbounds nuw %struct.FWCfgEntry, ptr %50, i64 %52
  %54 = getelementptr inbounds nuw %struct.FWCfgEntry, ptr %53, i32 0, i32 2
  store ptr %44, ptr %54, align 8
  %55 = load i64, ptr %8, align 8
  %56 = trunc i64 %55 to i32
  %57 = load ptr, ptr %5, align 8
  %58 = getelementptr inbounds nuw %struct.FWCfgState, ptr %57, i32 0, i32 2
  %59 = load i32, ptr %10, align 4
  %60 = sext i32 %59 to i64
  %61 = getelementptr inbounds [2 x ptr], ptr %58, i64 0, i64 %60
  %62 = load ptr, ptr %61, align 8
  %63 = load i16, ptr %6, align 2
  %64 = zext i16 %63 to i64
  %65 = getelementptr inbounds nuw %struct.FWCfgEntry, ptr %62, i64 %64
  %66 = getelementptr inbounds nuw %struct.FWCfgEntry, ptr %65, i32 0, i32 0
  store i32 %56, ptr %66, align 8
  %67 = load ptr, ptr %5, align 8
  %68 = getelementptr inbounds nuw %struct.FWCfgState, ptr %67, i32 0, i32 2
  %69 = load i32, ptr %10, align 4
  %70 = sext i32 %69 to i64
  %71 = getelementptr inbounds [2 x ptr], ptr %68, i64 0, i64 %70
  %72 = load ptr, ptr %71, align 8
  %73 = load i16, ptr %6, align 2
  %74 = zext i16 %73 to i64
  %75 = getelementptr inbounds nuw %struct.FWCfgEntry, ptr %72, i64 %74
  %76 = getelementptr inbounds nuw %struct.FWCfgEntry, ptr %75, i32 0, i32 1
  store i8 0, ptr %76, align 4
  %77 = load ptr, ptr %9, align 8
  call void @llvm.lifetime.end.p0(i64 4, ptr %10) #18
  call void @llvm.lifetime.end.p0(i64 8, ptr %9) #18
  ret ptr %77
}

; Function Attrs: inlinehint nounwind sspstrong uwtable
define internal i32 @cpu_to_le32(i32 noundef %0) #2 {
  %2 = alloca i32, align 4
  store i32 %0, ptr %2, align 4
  %3 = load i32, ptr %2, align 4
  ret i32 %3
}

; Function Attrs: nounwind sspstrong uwtable
define dso_local void @fw_cfg_modify_i32(ptr noundef %0, i16 noundef zeroext %1, i32 noundef %2) #0 {
  %4 = alloca ptr, align 8
  %5 = alloca i16, align 2
  %6 = alloca i32, align 4
  %7 = alloca ptr, align 8
  %8 = alloca ptr, align 8
  store ptr %0, ptr %4, align 8
  store i16 %1, ptr %5, align 2
  store i32 %2, ptr %6, align 4
  call void @llvm.lifetime.start.p0(i64 8, ptr %7) #18
  store ptr null, ptr %7, align 8, !annotation !6
  call void @llvm.lifetime.start.p0(i64 8, ptr %8) #18
  store ptr null, ptr %8, align 8, !annotation !6
  %9 = call noalias ptr @g_malloc(i64 noundef 4) #22
  store ptr %9, ptr %7, align 8
  %10 = load i32, ptr %6, align 4
  %11 = call i32 @cpu_to_le32(i32 noundef %10)
  %12 = load ptr, ptr %7, align 8
  store i32 %11, ptr %12, align 4
  %13 = load ptr, ptr %4, align 8
  %14 = load i16, ptr %5, align 2
  %15 = load ptr, ptr %7, align 8
  %16 = call ptr @fw_cfg_modify_bytes_read(ptr noundef %13, i16 noundef zeroext %14, ptr noundef %15, i64 noundef 4)
  store ptr %16, ptr %8, align 8
  %17 = load ptr, ptr %8, align 8
  call void @g_free(ptr noundef %17)
  call void @llvm.lifetime.end.p0(i64 8, ptr %8) #18
  call void @llvm.lifetime.end.p0(i64 8, ptr %7) #18
  ret void
}